; ModuleID = '21/66.c'
source_filename = "21/66.c"
target datalayout = "e-m:e-p270:32:32-p271:32:32-p272:64:64-i64:64-f80:128-n8:16:32:64-S128"
target triple = "x86_64-pc-linux-gnu"

@m = dso_local global i32 0, align 4
@.str = private unnamed_addr constant [3 x i8] c"%d\00", align 1
@.str.1 = private unnamed_addr constant [4 x i8] c"%d\0A\00", align 1
@.str.2 = private unnamed_addr constant [4 x i8] c"%d,\00", align 1

; Function Attrs: noinline nounwind uwtable
define dso_local void @main() #0 {
  %1 = alloca i32, align 4
  %2 = alloca [300 x i32], align 16
  %3 = alloca i32, align 4
  %4 = alloca i32, align 4
  %5 = alloca i32, align 4
  %6 = alloca [100 x i32], align 16
  %7 = alloca float, align 4
  %8 = alloca float, align 4
  %9 = alloca [300 x double], align 16
  %10 = alloca double, align 8
  %11 = bitcast [100 x i32]* %6 to i8*
  call void @llvm.memset.p0i8.i64(i8* align 16 %11, i8 0, i64 400, i1 false)
  %12 = bitcast i8* %11 to <{ i32, [99 x i32] }>*
  %13 = getelementptr inbounds <{ i32, [99 x i32] }>, <{ i32, [99 x i32] }>* %12, i32 0, i32 0
  store i32 -1, i32* %13, align 16
  store float 0.000000e+00, float* %8, align 4
  %14 = call i32 (i8*, ...) @__isoc99_scanf(i8* getelementptr inbounds ([3 x i8], [3 x i8]* @.str, i64 0, i64 0), i32* %1)
  store i32 0, i32* %3, align 4
  br label %15

15:                                               ; preds = %24, %0
  %16 = load i32, i32* %3, align 4
  %17 = load i32, i32* %1, align 4
  %18 = icmp slt i32 %16, %17
  br i1 %18, label %19, label %27

19:                                               ; preds = %15
  %20 = load i32, i32* %3, align 4
  %21 = sext i32 %20 to i64
  %22 = getelementptr inbounds [300 x i32], [300 x i32]* %2, i64 0, i64 %21
  %23 = call i32 (i8*, ...) @__isoc99_scanf(i8* getelementptr inbounds ([3 x i8], [3 x i8]* @.str, i64 0, i64 0), i32* %22)
  br label %24

24:                                               ; preds = %19
  %25 = load i32, i32* %3, align 4
  %26 = add nsw i32 %25, 1
  store i32 %26, i32* %3, align 4
  br label %15

27:                                               ; preds = %15
  store i32 0, i32* %3, align 4
  br label %28

28:                                               ; preds = %40, %27
  %29 = load i32, i32* %3, align 4
  %30 = load i32, i32* %1, align 4
  %31 = icmp slt i32 %29, %30
  br i1 %31, label %32, label %43

32:                                               ; preds = %28
  %33 = load float, float* %8, align 4
  %34 = load i32, i32* %3, align 4
  %35 = sext i32 %34 to i64
  %36 = getelementptr inbounds [300 x i32], [300 x i32]* %2, i64 0, i64 %35
  %37 = load i32, i32* %36, align 4
  %38 = sitofp i32 %37 to float
  %39 = fadd float %33, %38
  store float %39, float* %8, align 4
  br label %40

40:                                               ; preds = %32
  %41 = load i32, i32* %3, align 4
  %42 = add nsw i32 %41, 1
  store i32 %42, i32* %3, align 4
  br label %28

43:                                               ; preds = %28
  %44 = load float, float* %8, align 4
  %45 = load i32, i32* %1, align 4
  %46 = sitofp i32 %45 to float
  %47 = fdiv float %44, %46
  store float %47, float* %7, align 4
  store i32 0, i32* %3, align 4
  br label %48

48:                                               ; preds = %65, %43
  %49 = load i32, i32* %3, align 4
  %50 = load i32, i32* %1, align 4
  %51 = icmp slt i32 %49, %50
  br i1 %51, label %52, label %68

52:                                               ; preds = %48
  %53 = load i32, i32* %3, align 4
  %54 = sext i32 %53 to i64
  %55 = getelementptr inbounds [300 x i32], [300 x i32]* %2, i64 0, i64 %54
  %56 = load i32, i32* %55, align 4
  %57 = sitofp i32 %56 to float
  %58 = load float, float* %7, align 4
  %59 = fsub float %57, %58
  %60 = fpext float %59 to double
  %61 = call double @llvm.fabs.f64(double %60)
  %62 = load i32, i32* %3, align 4
  %63 = sext i32 %62 to i64
  %64 = getelementptr inbounds [300 x double], [300 x double]* %9, i64 0, i64 %63
  store double %61, double* %64, align 8
  br label %65

65:                                               ; preds = %52
  %66 = load i32, i32* %3, align 4
  %67 = add nsw i32 %66, 1
  store i32 %67, i32* %3, align 4
  br label %48

68:                                               ; preds = %48
  %69 = getelementptr inbounds [300 x double], [300 x double]* %9, i64 0, i64 0
  %70 = load double, double* %69, align 16
  store double %70, double* %10, align 8
  store i32 0, i32* %3, align 4
  br label %71

71:                                               ; preds = %88, %68
  %72 = load i32, i32* %3, align 4
  %73 = load i32, i32* %1, align 4
  %74 = icmp slt i32 %72, %73
  br i1 %74, label %75, label %91

75:                                               ; preds = %71
  %76 = load i32, i32* %3, align 4
  %77 = sext i32 %76 to i64
  %78 = getelementptr inbounds [300 x double], [300 x double]* %9, i64 0, i64 %77
  %79 = load double, double* %78, align 8
  %80 = load double, double* %10, align 8
  %81 = fcmp ogt double %79, %80
  br i1 %81, label %82, label %87

82:                                               ; preds = %75
  %83 = load i32, i32* %3, align 4
  %84 = sext i32 %83 to i64
  %85 = getelementptr inbounds [300 x double], [300 x double]* %9, i64 0, i64 %84
  %86 = load double, double* %85, align 8
  store double %86, double* %10, align 8
  br label %87

87:                                               ; preds = %82, %75
  br label %88

88:                                               ; preds = %87
  %89 = load i32, i32* %3, align 4
  %90 = add nsw i32 %89, 1
  store i32 %90, i32* %3, align 4
  br label %71

91:                                               ; preds = %71
  store i32 0, i32* %3, align 4
  br label %92

92:                                               ; preds = %114, %91
  %93 = load i32, i32* %3, align 4
  %94 = load i32, i32* %1, align 4
  %95 = icmp slt i32 %93, %94
  br i1 %95, label %96, label %117

96:                                               ; preds = %92
  %97 = load double, double* %10, align 8
  %98 = load i32, i32* %3, align 4
  %99 = sext i32 %98 to i64
  %100 = getelementptr inbounds [300 x double], [300 x double]* %9, i64 0, i64 %99
  %101 = load double, double* %100, align 8
  %102 = fcmp oeq double %97, %101
  br i1 %102, label %103, label %113

103:                                              ; preds = %96
  %104 = load i32, i32* %3, align 4
  %105 = sext i32 %104 to i64
  %106 = getelementptr inbounds [300 x i32], [300 x i32]* %2, i64 0, i64 %105
  %107 = load i32, i32* %106, align 4
  %108 = load i32, i32* @m, align 4
  %109 = sext i32 %108 to i64
  %110 = getelementptr inbounds [100 x i32], [100 x i32]* %6, i64 0, i64 %109
  store i32 %107, i32* %110, align 4
  %111 = load i32, i32* @m, align 4
  %112 = add nsw i32 %111, 1
  store i32 %112, i32* @m, align 4
  br label %113

113:                                              ; preds = %103, %96
  br label %114

114:                                              ; preds = %113
  %115 = load i32, i32* %3, align 4
  %116 = add nsw i32 %115, 1
  store i32 %116, i32* %3, align 4
  br label %92

117:                                              ; preds = %92
  %118 = getelementptr inbounds [100 x i32], [100 x i32]* %6, i64 0, i64 1
  %119 = load i32, i32* %118, align 4
  %120 = icmp eq i32 %119, -1
  br i1 %120, label %121, label %125

121:                                              ; preds = %117
  %122 = getelementptr inbounds [100 x i32], [100 x i32]* %6, i64 0, i64 0
  %123 = load i32, i32* %122, align 16
  %124 = call i32 (i8*, ...) @printf(i8* getelementptr inbounds ([4 x i8], [4 x i8]* @.str.1, i64 0, i64 0), i32 %123)
  br label %147

125:                                              ; preds = %117
  store i32 0, i32* %3, align 4
  br label %126

126:                                              ; preds = %137, %125
  %127 = load i32, i32* %3, align 4
  %128 = load i32, i32* @m, align 4
  %129 = sub nsw i32 %128, 1
  %130 = icmp slt i32 %127, %129
  br i1 %130, label %131, label %140

131:                                              ; preds = %126
  %132 = load i32, i32* %3, align 4
  %133 = sext i32 %132 to i64
  %134 = getelementptr inbounds [100 x i32], [100 x i32]* %6, i64 0, i64 %133
  %135 = load i32, i32* %134, align 4
  %136 = call i32 (i8*, ...) @printf(i8* getelementptr inbounds ([4 x i8], [4 x i8]* @.str.2, i64 0, i64 0), i32 %135)
  br label %137

137:                                              ; preds = %131
  %138 = load i32, i32* %3, align 4
  %139 = add nsw i32 %138, 1
  store i32 %139, i32* %3, align 4
  br label %126

140:                                              ; preds = %126
  %141 = load i32, i32* @m, align 4
  %142 = sub nsw i32 %141, 1
  %143 = sext i32 %142 to i64
  %144 = getelementptr inbounds [100 x i32], [100 x i32]* %6, i64 0, i64 %143
  %145 = load i32, i32* %144, align 4
  %146 = call i32 (i8*, ...) @printf(i8* getelementptr inbounds ([4 x i8], [4 x i8]* @.str.1, i64 0, i64 0), i32 %145)
  br label %147

147:                                              ; preds = %140, %121
  ret void
}

; Function Attrs: argmemonly nounwind willreturn
declare void @llvm.memset.p0i8.i64(i8* nocapture writeonly, i8, i64, i1 immarg) #1

declare dso_local i32 @__isoc99_scanf(i8*, ...) #2

; Function Attrs: nounwind readnone speculatable willreturn
declare double @llvm.fabs.f64(double) #3

declare dso_local i32 @printf(i8*, ...) #2


!llvm.module.flags = !{!0}
!llvm.ident = !{!1}

!0 = !{i32 1, !"wchar_size", i32 4}
!1 = !{!"clang version 10.0.0-4ubuntu1 "}
